; Function Attrs: mustprogress uwtable
define internal fastcc void @_ZSt22__stable_sort_adaptiveIPiS0_lN9__gnu_cxx5__ops15_Iter_comp_iterIN2cv3dnn12_GLOBAL__N_117ComparatorGreaterIfEEEEEvT_SA_T0_T1_T2_(ptr noundef %0, ptr noundef %1, ptr noundef %2, i64 noundef %3, ptr %4, i64 %5) unnamed_addr #3 {
  %7 = alloca %"struct.__gnu_cxx::__ops::_Iter_comp_iter", align 8
  %8 = ptrtoint ptr %1 to i64
  %9 = ptrtoint ptr %0 to i64
  %10 = sub i64 %8, %9
  %11 = ashr exact i64 %10, 2
  %12 = add nsw i64 %11, 1
  %13 = sdiv i64 %12, 2
  %14 = getelementptr inbounds i32, ptr %0, i64 %13
  %15 = icmp sgt i64 %13, %3
  br i1 %15, label %16, label %17

16:                                               ; preds = %6
  tail call fastcc void @_ZSt22__stable_sort_adaptiveIPiS0_lN9__gnu_cxx5__ops15_Iter_comp_iterIN2cv3dnn12_GLOBAL__N_117ComparatorGreaterIfEEEEEvT_SA_T0_T1_T2_(ptr noundef %0, ptr noundef %14, ptr noundef %2, i64 noundef %3, ptr %4, i64 %5)
  tail call fastcc void @_ZSt22__stable_sort_adaptiveIPiS0_lN9__gnu_cxx5__ops15_Iter_comp_iterIN2cv3dnn12_GLOBAL__N_117ComparatorGreaterIfEEEEEvT_SA_T0_T1_T2_(ptr noundef %14, ptr noundef %1, ptr noundef %2, i64 noundef %3, ptr %4, i64 %5)
  br label %18

17:                                               ; preds = %6
  tail call fastcc void @_ZSt24__merge_sort_with_bufferIPiS0_N9__gnu_cxx5__ops15_Iter_comp_iterIN2cv3dnn12_GLOBAL__N_117ComparatorGreaterIfEEEEEvT_SA_T0_T1_(ptr noundef %0, ptr noundef %14, ptr noundef %2, ptr %4, i64 %5)
  tail call fastcc void @_ZSt24__merge_sort_with_bufferIPiS0_N9__gnu_cxx5__ops15_Iter_comp_iterIN2cv3dnn12_GLOBAL__N_117ComparatorGreaterIfEEEEEvT_SA_T0_T1_(ptr noundef %14, ptr noundef %1, ptr noundef %2, ptr %4, i64 %5)
  br label %18

18:                                               ; preds = %17, %16
  %19 = ptrtoint ptr %14 to i64
  %20 = sub i64 %8, %19
  %21 = ashr exact i64 %20, 2
  store ptr %4, ptr %7, align 8, !tbaa !133
  %.sroa.6.0..sroa_idx = getelementptr inbounds nuw i8, ptr %7, i64 8
  store i64 %5, ptr %.sroa.6.0..sroa_idx, align 8, !tbaa !75
  tail call fastcc void @_ZSt16__merge_adaptiveIPilS0_N9__gnu_cxx5__ops15_Iter_comp_iterIN2cv3dnn12_GLOBAL__N_117ComparatorGreaterIfEEEEEvT_SA_SA_T0_SB_T1_SB_T2_(ptr noundef %0, ptr noundef %14, ptr noundef %1, i64 noundef %13, i64 noundef %21, ptr noundef %2, i64 noundef %3, ptr noundef nonnull byval(%"struct.__gnu_cxx::__ops::_Iter_comp_iter") align 8 %7)
  ret void
}